ccopy_reg
_reconstructor
p1
(ccloudinit.sources.DataSourceConfigDrive
DataSourceConfigDrive
p2
c__builtin__
object
p3
NtRp4
(dp5
S'files'
p6
(dp7
V/etc/network/interfaces
p8
S"# Generated by the DigitalOcean provisioning process on 2018-12-17T00:56:18Z\n# See 'man interfaces' on a Debian/Ubuntu systems.\n# The network configuration was generated from http://169.254.169.254/metadata/v1.json.\n# You may also find the it on the locally attached CDROM under 'digitalocean_meta_data.json'\n\nauto lo\niface lo inet loopback\n\tdns-nameservers  67.207.67.3 67.207.67.2\n\nauto eth0\niface eth0 inet static\n\thwaddress 82:0b:31:6c:1a:01\n\taddress   159.89.121.5\n\tnetmask   255.255.240.0\n\tgateway   159.89.112.1\n\tpost-up ifup eth0:1\n\n\nauto eth0:1\niface eth0:1 inet static\n\thwaddress 82:0b:31:6c:1a:01\n\taddress   10.20.0.29/255.255.0.0\n"
p9
sV/etc/udev/rules.d/70-persistent-net.rules
p10
S'# Generated by the DigitalOcean provisioning process on 2018-12-17T00:56:18Z\n# the following rules ensure that the Network Interfaces are named as expected.\n\n# DigitalOcean rule for eth0\nSUBSYSTEM=="net", ACTION=="add", DRIVERS=="?*", ATTR{address}=="82:0b:31:6c:1a:01", NAME="eth0"\n\n# DigitalOcean rule for lo\nSUBSYSTEM=="net", ACTION=="add", DRIVERS=="?*", ATTR{address}=="", NAME="lo"\n\n'
p11
sV/etc/resolv.conf
p12
S'nameserver 67.207.67.3\nnameserver 67.207.67.2\n'
p13
ssS'paths'
p14
g1
(ccloudinit.helpers
Paths
p15
g3
NtRp16
(dp17
S'run_dir'
p18
S'/run/cloud-init'
p19
sS'lookups'
p20
(dp21
S'cloud_config'
p22
S'cloud-config.txt'
p23
sS'userdata'
p24
S'user-data.txt.i'
p25
sS'vendordata_raw'
p26
S'vendor-data.txt'
p27
sS'vendor_scripts'
p28
S'scripts/vendor'
p29
sS'vendordata'
p30
S'vendor-data.txt.i'
p31
sS'userdata_raw'
p32
S'user-data.txt'
p33
sS'handlers'
p34
g34
sS'boothooks'
p35
g35
sS'instance_id'
p36
S'.instance-id'
p37
sS'obj_pkl'
p38
S'obj.pkl'
p39
sS'vendor_cloud_config'
p40
S'vendor-cloud-config.txt'
p41
sS'scripts'
p42
g42
sS'sem'
p43
g43
sS'data'
p44
g44
ssS'template_tpl'
p45
S'/etc/cloud/templates/%s.tmpl'
p46
sS'cfgs'
p47
(dp48
S'cloud_dir'
p49
S'/var/lib/cloud'
p50
sS'templates_dir'
p51
S'/etc/cloud/templates'
p52
ssS'cloud_dir'
p53
g50
sS'datasource'
p54
NsS'upstart_conf_d'
p55
NsS'boot_finished'
p56
S'/var/lib/cloud/instance/boot-finished'
p57
sS'instance_link'
p58
S'/var/lib/cloud/instance'
p59
sS'seed_dir'
p60
S'/var/lib/cloud/seed'
p61
sbsS'ec2_metadata'
p62
(dp63
sS'_network_config'
p64
(dp65
S'version'
p66
I1
sS'config'
p67
(lp68
(dp69
S'subnets'
p70
(lp71
(dp72
Vroutes
p73
(lp74
(dp75
Vnetmask
p76
V0.0.0.0
p77
sVgateway
p78
V159.89.112.1
p79
sVnetwork
p80
V0.0.0.0
p81
sasVnetmask
p82
V255.255.240.0
p83
sVtype
p84
S'static'
p85
sS'ipv4'
p86
I01
sS'address'
p87
V159.89.121.5
p88
sa(dp89
Vroutes
p90
(lp91
(dp92
Vnetmask
p93
V255.255.0.0
p94
sVgateway
p95
V10.20.0.1
p96
sVnetwork
p97
V10.20.0.0
p98
sasVnetmask
p99
V255.255.0.0
p100
sVtype
p101
g85
sg86
I01
sg87
V10.20.0.29
p102
sasS'mac_address'
p103
V82:0b:31:6c:1a:01
p104
sVtype
p105
S'physical'
p106
sS'name'
p107
S'eth0'
p108
sVmtu
p109
I1500
sa(dp110
Vtype
p111
S'nameserver'
p112
sVaddress
p113
V67.207.67.3
p114
sa(dp115
Vtype
p116
g112
sVaddress
p117
V67.207.67.2
p118
sassS'sys_cfg'
p119
(dp120
S'paths'
p121
(dp122
S'cloud_dir'
p123
S'/var/lib/cloud'
p124
sS'templates_dir'
p125
S'/etc/cloud/templates'
p126
ssS'ssh_svcname'
p127
S'sshd'
p128
sS'default_user'
p129
(dp130
S'shell'
p131
S'/bin/bash'
p132
sS'name'
p133
S'centos'
p134
sS'sudo'
p135
(lp136
S'ALL=(ALL) NOPASSWD:ALL'
p137
asS'lock_passwd'
p138
I01
sS'gecos'
p139
S'Cloud User'
p140
sS'groups'
p141
(lp142
S'wheel'
p143
aS'adm'
p144
aS'systemd-journal'
p145
asssS'userdata'
p146
(iemail.mime.multipart
MIMEMultipart
p147
(dp148
S'_headers'
p149
(lp150
(S'Content-Type'
p151
S'multipart/mixed; boundary="===============5538046964610288077=="'
tp152
a(S'MIME-Version'
p153
S'1.0'
p154
tp155
a(S'Number-Attachments'
p156
S'1'
tp157
asS'_payload'
p158
(lp159
(iemail.mime.base
MIMEBase
p160
(dp161
g149
(lp162
(g153
g154
tp163
a(S'Content-Type'
p164
S'text/x-not-multipart'
tp165
a(S'Content-Disposition'
p166
S'attachment; filename="part-001"'
tp167
asg158
S''
sS'_charset'
p168
NsS'_default_type'
p169
S'text/plain'
p170
sS'preamble'
p171
NsS'defects'
p172
(lp173
sS'_unixfrom'
p174
NsS'epilogue'
p175
Nsbasg168
Nsg169
g170
sg171
Nsg172
(lp176
sg174
Nsg175
NsbsS'vendordata'
p177
(iemail.mime.multipart
MIMEMultipart
p178
(dp179
g149
(lp180
(g151
S'multipart/mixed; boundary="===============6878387433061698169=="'
tp181
a(g153
g154
tp182
a(g156
S'3'
tp183
asg158
(lp184
(iemail.message
Message
p185
(dp186
g149
(lp187
(S'MIME-Version'
S'1.0'
tp188
a(S'Content-Type'
S'text/cloud-config; charset="us-ascii"'
tp189
a(S'Content-Transfer-Encoding'
S'7bit'
tp190
a(S'Content-Disposition'
S'attachment; filename="cloud-config"'
tp191
asg158
S'#cloud-config\ndisable_root: false\nmanage_etc_hosts: true\n\nssh_pwauth: true\n\nnetwork:\n    config: disabled\n\nlocale_configfile: /etc/sysconfig/i18n\n\ncloud_init_modules:\n - migrator\n - seed_random\n - bootcmd\n - write-files\n - [ growpart, always ]\n - [ resizefs, always ]\n - set_hostname\n - [ update_hostname, once-per-instance ]\n - [ update_etc_hosts, once-per-instance ]\n - ca-certs\n - rsyslog\n - users-groups\n - ssh\n\ncloud_config_modules:\n - emit_upstart\n - disk_setup\n - mounts\n - ssh-import-id\n - locale\n - set-passwords\n - package-update-upgrade-install\n - landscape\n - timezone\n - puppet\n - chef\n - salt-minion\n - mcollective\n - disable-ec2-metadata\n - runcmd\n - resolv-conf\n\ncloud_final_modules:\n - rightscale_userdata\n - scripts-vendor\n - scripts-per-once\n - scripts-per-boot\n - scripts-per-instance\n - scripts-user\n - ssh-authkey-fingerprints\n - keys-to-console\n - phone-home\n - final-message\n - power-state-change\n\nsystem_info:\n  distro: rhel\n  paths:\n    cloud_dir: /var/lib/cloud\n    templates_dir: /etc/cloud/templates\n  ssh_svcname: sshd\n\n'
p192
sg168
Nsg169
g170
sg171
Nsg172
(lp193
sg174
Nsg175
Nsba(iemail.message
Message
p194
(dp195
g149
(lp196
(S'MIME-Version'
S'1.0'
tp197
a(S'Content-Type'
S'text/cloud-boothook; charset="us-ascii"'
tp198
a(S'Content-Transfer-Encoding'
S'7bit'
tp199
a(S'Content-Disposition'
S'attachment; filename="entropy-seed"'
tp200
asg158
S"#!/bin/sh -x\n# DigitalOcean Entropy Seed script\nlogger -t DigitalOcean 'adding random seed to /dev/urandom'\n(base64 -d <<EOE\nA4sYVlpW0T8kIXoWfMbO2oT9H8QMIK6M+wsbqltZJVC9U7QtF/4vEbvOsFE9Hamx+LmCrnr9SQCA\nG0LwkLyHAD+01f/nDFAMg1d44ytNmnrGZchmE41OqoFqJ5X2tZldyAxKhHcYyx3yswtmzVU/5cXu\nNyhGcSn0MU1uFupygbHhh+SHETSs68/TA2iPo0ajKd7HfyzIO6Nj1qzf1HipdWG8QxCFZ6kl5fJ/\nD4Hql72MLTH7Ypo5h0CCWVTeT0CHxiSFznv353vBtxun8eyrPetq8mwJ/gl5s8GLtsGpON0bGY+r\n/1q3Vi/cmudzNNULC18MGZ1ZfUVauOFgh2heRFPIDaydWQX656E67caVgcnnfUum9z5jNZX6jMFq\n1LaZogSU0xz10D1Y6aSVYEtbLBlThNwZ2Y/KzAE7Bz2h0Ffza8Qabnyy6GCGLbU+oAtVFNZ0Mbjb\nviOQhk6djbUZd4sEPULjYLIJQHD5uRssubrEb5rRsSzKZU07qn7bbb3axOusXAl1wbuj9IKX5leh\n5D7IV1fa+ne3KAEsnWFqFY5ilt7VceB2lgX2L32iBkDZ0MXmxrxiA3elZ+SRaMyDM8tOnfy0E1GK\nWbiwIaJLcuRuBZopR4cEa9oJQAYFXS6sAutl+0GwHY3Z8k1TQ4+n5G9BIMFPE0I9RAvKrw2gy2mF\n2KAcajy7N2nlRspj2VhCEsaP1DnW7fM6sdtb/mCf4dFnV/mdN2xWis4WBG8dDiCRkz8mGEd/LdEj\nkpZV2GnfBWdMMIpgBj5Uynmr87F0TRe5lSO/DLB82Hy4NldC6GZdKGtKGgS4Asm/PosXJPcmOQKC\nfl+UFaAsGOOkgGnMhEImJSy8m6xtitoCTb98wGd97TRoaPivDbcOCfyXHs23gdp9Jge8tddE5oo8\nxx9T5F4PmuniDCMwcRInRUQ6iaDl8CUQkt87Cw4Fk52IUylPIunVqZOOstA0yLmsy3r74FmI6+9P\nqRd3BJ3EaO+xxQf2X8ieVGcSHmfkJFcgSLVx/wO2OQoN5zLwG7YNxKp6LxE6Y6M/5nUAyvyYxD6o\nSBcetO3i3uhwnG5eKAsQ5uHndPkDDO/ayL5dWgBypRnBhQbz0uLICGNCTLS4sxKAbBpBVMS+qG1e\nx1k47M6LOgY/jmrrXWSdEBGAlbCkH2aPYqnDXJoxuhL6y6NMVueZtiGVDNX1f60uGtmspe8b6lQu\n9qwU1rFaESiz5hjaA1j3m+/r8wZOEebx3WqdPZ2tiynVAafPdNrWcchNdsXSRGao9buLKVtt+KaW\nDmAXjYHSNx39zDAIdtma3P0/vWjxByXTbr3jI6GarIKlmBPTiqc0Pc7JMlfUUZCNmWqoRonrx+3J\n+cc3ClTE8uvdp9iUEYYyhe/eSLA+EcyWK9HLe5WJ8Umz1FL+JsIaWHQ1yJsQwGWNUmghabHhrKaK\nk1x8Qp58bzQG2EkI7fIRzFY0gvy2I/3huIqBaVSXExG5lTBPe8JNK4kG6js6o7BOPEj6oO01EDFM\nP4doCm4BPouJR7SyVugMzmpi5cTcFGXrvTt0iilbEcij4X1uteY9MDOIy40APVunbalEGC/qm/12\nOPaYaJmndqaiCkNJk61pJ7J+2MdXGD0hprFaCRCKuWOPE3O6l0b0fQUd9IJiXcc29HtjuNpHaSrY\n3GQXtIIbDY4+k30qe5S0MA4XitISa9rgG4Z2NNoKVDxGPcQywu28nVC1/gui6h//BufIqp3glgSi\naID7A8vEcQGNU7ZLacmL2gS6/Vj5Zu/E30M0zgwltSjk8Fth3hckzDKIZ/pHvrpXIYlELubyQpxY\nhqYyflDI+3IN1o385C9AEBzC9rTdtILFcE0c6DWNj+Wx5imFqm+ezPymtUmlpJ/PT3lDsvRNw6DH\nVkezLSPsvGf1sHB3AeIw6WYtjUmNnbuqwxmTVJOosiyb6iljohHYjA4rtCM4Sg1x99GF7h/mHXMF\nZxrSCDdK0Z34MG/eQPqn1f4gVJjsK3OiNQcqYNFgKHmVnKtpgO0nqz45FjDRlMnE+BoBZLWKEL1c\npfUwFPFQwMXjRoP1Y24LOAuo6DrIuoDXf/iv3QvxKRieyo8UzZ2HEHh5ZrQWWpjuMgoyWsGStOQE\ndnfBSJV+klSO4hShxhg2hFfASltx+N9dYS5RdCa7gqD/XuE8Mfd0ZxbQEqQ+69yv1xSCD3wFB6sT\nxjhEcVfCamdZ8aAQKyNB38SMUZbK8HTYnGnKA/8FEGDKoNK7hn0Kx1/mGfp5GtVpnppEwxPJhaxG\n7yb8KA7+a8mInrfBCo10gX0dRKtSYhyRngsUmq8JtbqR2TBUuwoX2UVJmfMH1aSQtR87vraCNsh6\nm7wA7Z+zgp4AtJSgvX8VitYcPDrK496OJK6754TlnlGXuBO9d1VfHMy8tIBfLHGKtAEaeqHjCS+Q\n+pgXJQOokKAV30KFPnuE3ou96YN/Q22Rbr5aDbhlgx4bXmdTQn6+DUq9uruz0z9XafNTnuMg8u0J\nwAq1OxF1XIz2BvGD/VtmvNw2WJY25I59D4+Auue/2nMrcuejc60MsNOThXvkhXKyltzoYx2AqALP\nNGxex9KXeB3p2x0zI7ZT79P81L8K3OQZ+QWVE4gmTmOfHPUjbZi2DSf42OEAmcU04qsEbiEx2t4O\nbCClWTXztWTZwWdJB3qreY29Pn8P4wZNG5hD4TumkwasyhHHKaA5t3b73sh4Rd0UAfY/p12ClGHq\n+6gXYfjaIjZqn+BfCwezKfizHSXhI4LNsRYR4qtmep0VKDM0q2g3YSz6xjhMp7ZK7HNq27mc6gXt\nKnTAVVJZU2S0LFPSv38la5U4P85M6BeC1cyWkRL+t7Mf0gOPGGC/CPEAlEaBKtH9yyny3QxhYzBg\nMj59NGf85/ba1PCPTAW6nrF1j0bhQWZ7I51Q4PAsyhtRTRTJVJ94P2V8pDaYLfnnJjS12ZZDCnDe\nmG+EjblMzt7H6RxrV6W1LczAYxfbDCA5d/AnuFYuqpF6hzjj6DzdFDqeQDrl1UnY6Ypwbt/A63vr\nMpUGD6n0yXBEwMVmb8Sh9XELFmeuZ+IIzIUFosJIerpDOyLRPCkQbhFDChkyGv8BotuqpLL+0wnk\nPfH5SEFRCT3g2p0JHV31PIpjcXeWshKdOuG9fcrsyryIhdfuzFstTpDrvsqB7CvjK2eKmHYmd7CC\nfjNuTXt6XMYJ9rHoW1FRmF+Ta8NsS9YTqVQuKQfriN9arodxhhZCGpEue3OFZZJ9W+YmDAAEz3+v\nm/6XMekF7VyfL5KoK7nLUKSDZDjX0RqRVXK59hXPtcxF43boN69rO5C9det8C2VJmH26wTry+AZL\nMJsq9iruP6tQ5FQrPATp1YCMKrvTw3D8QPgzw9koDAbKjYbxIZn2maNVkM75wjIcC7A5XItT4uMH\nv7yakP2ehctj0nas0tqbPYitj7d6mmSxpWLOTccJhX5Bb3mypEyeKB2b9Py0PMLIJ2t+ar6Rjdw5\nF+s3QRbPziA3VYh1MWyh0GEz9WLGZqhdU/0L0F63dg4nrWs9RaPcKW5MBTfnfnqzsj/7Iw2n2/Ra\n37ICUgWBEegOyGjM8OfLMHWvRxBaiHCJj4yIEm26awYeaBWxUTXhcZXxI/YHmixced02MAYaK4u6\nP9843Q2QwENKvBv1o59/V0YIbo/yYRqk1fAsilVqv1l77385tRVqhWZKxeCbcErlRzHLuj5YtJwp\nGO0HGtSzkY/4/Lh7Lpic4Ahdum/6eQQN4o0eHZLD7QS4ZCfcpx9ojvUFrCz0/xQHIyvfBdSlXbsI\nbsPOEuhJ21z3lKUcPGCRF4c8jrMJeyh3+gSB208SpXj5Yylg4+QKHTMR6U/qMHRU/DFkEG+bGnBr\n5e6yzWAuOl8qYj8MQZ9AWvpmDpbbraTi8dUWdhyUE8EJcFTQyBh0sLygql0Tht9JsT7NeIUt4r/W\nCMjHdBi5tKwR90yyc58HvrQUm3GXSNDJZXDitqmVSzSLSChY5ouMcWiEYU7se7OpaH9UrbDOnImF\nbfs5A2CeEb/6IINRMbaoBjaVoq4fBPYaoDn0Nco+WytFrfpPld7Q2zzAZj/PNDlEo6J0\n\nEOE\n) > /dev/urandom \n\n"
p201
sg168
Nsg169
g170
sg171
Nsg172
(lp202
sg174
Nsg175
Nsba(iemail.message
Message
p203
(dp204
g149
(lp205
(S'MIME-Version'
S'1.0'
tp206
a(S'Content-Type'
S'text/cloud-boothook; charset="us-ascii"'
tp207
a(S'Content-Transfer-Encoding'
S'7bit'
tp208
a(S'Content-Disposition'
S'attachment; filename="digitalocean_fixups"'
tp209
asg158
S'#!/bin/sh\n\n# Disable the locale warning: by default imported cloud-images check the default\n# local and give a warning about invalid locales. The following line disable\n# the warning.\n\n# do not assume that /etc/skel exists\nif [ -d /etc/skel ]; then\n    touch /etc/skel/.cloud-locale-test.skip\nfi\ntouch /root/.cloud-locale-test.skip\n\n# Disable Ubuntu MOTD\nif [ -f /etc/default/motd-news ]; then\n    sed -e "s/ENABLED=1/ENABLED=0/g" \\\n        -i /etc/default/motd-news\nfi\n\n# Fix buggy cloud-init routes for IPv6\nr6c="/etc/sysconfig/network-scripts/route6-eth0"\nif [ -f "${r6c}" ]; then\n    sed -e "s|::/::|default|g" -i "${r6c}"\n    awk \'/default via/{system("ip -6 route add default via "$NF" dev eth0")}\' "${r6c}"\nelif [ -d "/etc/sysconfig/network-scripts" -a -f "/etc/network/interfaces" ]; then\n    # This deals with a bug in Fedora 27 where the network interface is not set\n    # properly by Cloud-init.\n    i6gw=$(egrep -A3 \'iface eth0:1 inet6 static\' /etc/network/interfaces | awk \'/gateway/{print$NF}\')\n    if [ -n "${i6gw}" ]; then\n        ip -6 route add default via ${i6gw} dev eth0\n        cat > ${r6c} <<EOM\n# DigitalOcean: written by ConfigDrive customization.\ndefault via ${i6gw}\nEOM\n    fi\nfi\n\n# Fix screwy file permmissions on the system resolvers.\nchmod 0644 /etc/resolv.conf\n\n# Support automatic disk resizing per boot.\n# Only update /etc/hosts once per instance.\nmkdir -p /etc/cloud/cloud.cfg.d\ncat > /etc/cloud/cloud.cfg.d/90-digitalocean.cfg <<EOM\n####\n# DigitalOcean: this file was written via cloud-init and composed from /etc/cloud/cloud.cfg\n#               In order to support resize events, \'growpart\' and \'resizefs\' are run each boot.\n#               \'update_etc_hosts\' will be run only once per instance. To see the differences, run\n#               \'diff -u /etc/cloud/cloud.cfg /etc/cloud/cloud.cfg.d/90-digitalocean.cfg\'.\n#\n#               This file was written to support Droplet $(</sys/devices/virtual/dmi/id/product_serial) on $(date +%Y-%m-%d)\n####\n\nEOM\nsed -e "s/- growpart$/- [ growpart, always ]/g" \\\n    -e "s/- resizefs$/- [ resizefs, always ]/g" \\\n    -e "s/- update_etc_hosts$/- [ update_etc_hosts, once-per-instance ]/g" \\\n    /etc/cloud/cloud.cfg >> /etc/cloud/cloud.cfg.d/90-digitalocean.cfg\n\n# Fix for machine-id\'s being dubiously present\ncat > /var/lib/cloud/scripts/per-instance/machine_id.sh <<EOM\n#!/bin/bash\nCT=\\$(date +%s);\nFT=\\$(stat /etc/machine-id -c %Y);\nDIFF=\\$(expr \\$CT - \\$FT)\n# record timestamp on machine-id for testing\n# If /etc/machine_id is over 10m old on first-boot, delete it\nif [ -f /etc/machine-id ]; then\n    if [ \\$DIFF -lt 600 ]; then\n        exit 0\n    fi\nrm -rf /etc/machine-id\nfi\n\n# systemd will use dbus uudigen if its there\n# we need to reset this for Debain 9.\nif which dbus-uuidgen &> /dev/null; then\n    rm -rf /var/lib/dbus/machine-id\n    dbus-uuidgen --ensure=/var/lib/dbus/machine-id\nfi\n\nif which systemd-machine-id-setup &> /dev/null; then\n    rm -rf /etc/machine-id\n    systemd-machine-id-setup\nfi\nEOM\nchmod 0700 /var/lib/cloud/scripts/per-instance/machine_id.sh\n\n# DigitalOcean updated the vendor-data to better support various distributions.\n# This script makes it so older snapshots will work by restoring the default behavior\n# of cloud-init.\nif [ -e /etc/cloud/cloud.cfg.disabled ]; then\n    mv /etc/cloud/cloud.cfg /etc/cloud/cloud.cfg.d/99-digitalocean.cfg\n    mv /etc/cloud/cloud.cfg.disabled /etc/cloud/cloud.cfg\n    logger -t DigitalOcean "restored default cloud-init behavior by renaming /etc/cloud/cloud.cfg.disabled to /etc/cloud/cloud.cfg"\nfi\n\nif [ -d /etc/udev/rules.d ]; then\n    # Add udev rules to automount block storage volumes.\n    cat > /etc/udev/rules.d/99-digitalocean-automount.rules <<EOM\n# Only try to automount DO block volumes.\nSUBSYSTEM!="block", GOTO="do_automount_end"\nENV{ID_VENDOR}!="DO", GOTO="do_automount_end"\nENV{ID_MODEL}!="Volume", GOTO="do_automount_end"\n# Only automount on the "add" action.\nACTION!="add", GOTO="do_automount_end"\n# Only try to automount filesystems we know about.\nENV{ID_FS_TYPE}!="ext4|xfs", GOTO="do_automount_end"\n\n# Create a temporary mountpoint and temporary location for the first-mount script.\nIMPORT{program}="/bin/sh -c \'echo TMP_MOUNT_DIR=\\$(mktemp -d -p /mnt .do-first-mount-XXXXXXXXX)\'"\nIMPORT{program}="/bin/sh -c \'echo TMP_SCRIPT=\\$(mktemp -t .do-first-mount-XXXXXXXXX.sh)\'"\n\n# Mount the volume at the temp mountpoint and copy the script off, then unmount.\nRUN{program}+="/bin/mount -o ro /dev/%k %E{TMP_MOUNT_DIR}"\nRUN{program}+="/bin/sh -c \'/bin/cp %E{TMP_MOUNT_DIR}/.first-mount.sh %E{TMP_SCRIPT} || exit 0\'"\nRUN{program}+="/bin/umount %E{TMP_MOUNT_DIR}"\nRUN{program}+="/bin/rmdir %E{TMP_MOUNT_DIR}"\n\n# Run the first-mount script. If it didn\'t exist this will be a no-op.\nRUN{program}+="/bin/sh %E{TMP_SCRIPT} \'%E{ID_SERIAL}\' \'%E{ID_FS_TYPE}\' \'%E{ID_SERIAL_SHORT}\' \'%E{ID_FS_UUID}\' \'%E{ID_FS_LABEL}\'"\n\n# Clean up.\nRUN{program}+="/bin/rm %E{TMP_SCRIPT}"\n\n# Finally, try and mount the volume. On first mount this will fail, but that\'s\n# OK because the volume was already mounted by the first-mount script.\nRUN{program}+="/bin/sh -c \'/bin/mount /dev/%k || exit 0\'"\n\nLABEL="do_automount_end"\nEOM\n    if which udevadm &> /dev/null ; then\n        udevadm control -R\n        udevadm trigger --action=add --subsystem-match=block\n    fi\nfi\n'
p210
sg168
Nsg169
g170
sg171
Nsg172
(lp211
sg174
Nsg175
Nsbasg168
Nsg169
g170
sg171
Nsg172
(lp212
sg174
Nsg175
NsbsS'userdata_raw'
p213
S''
sS'vendordata_raw'
p214
VContent-Type: multipart/mixed; boundary="===============8645434374073493512=="\u000aMIME-Version: 1.0\u000a\u000a--===============8645434374073493512==\u000aMIME-Version: 1.0\u000aContent-Type: text/cloud-config; charset="us-ascii"\u000aContent-Transfer-Encoding: 7bit\u000aContent-Disposition: attachment; filename="cloud-config"\u000a\u000a#cloud-config\u000adisable_root: false\u000amanage_etc_hosts: true\u000a\u000assh_pwauth: true\u000a\u000anetwork:\u000a    config: disabled\u000a\u000alocale_configfile: /etc/sysconfig/i18n\u000a\u000acloud_init_modules:\u000a - migrator\u000a - seed_random\u000a - bootcmd\u000a - write-files\u000a - [ growpart, always ]\u000a - [ resizefs, always ]\u000a - set_hostname\u000a - [ update_hostname, once-per-instance ]\u000a - [ update_etc_hosts, once-per-instance ]\u000a - ca-certs\u000a - rsyslog\u000a - users-groups\u000a - ssh\u000a\u000acloud_config_modules:\u000a - emit_upstart\u000a - disk_setup\u000a - mounts\u000a - ssh-import-id\u000a - locale\u000a - set-passwords\u000a - package-update-upgrade-install\u000a - landscape\u000a - timezone\u000a - puppet\u000a - chef\u000a - salt-minion\u000a - mcollective\u000a - disable-ec2-metadata\u000a - runcmd\u000a - resolv-conf\u000a\u000acloud_final_modules:\u000a - rightscale_userdata\u000a - scripts-vendor\u000a - scripts-per-once\u000a - scripts-per-boot\u000a - scripts-per-instance\u000a - scripts-user\u000a - ssh-authkey-fingerprints\u000a - keys-to-console\u000a - phone-home\u000a - final-message\u000a - power-state-change\u000a\u000asystem_info:\u000a  distro: rhel\u000a  paths:\u000a    cloud_dir: /var/lib/cloud\u000a    templates_dir: /etc/cloud/templates\u000a  ssh_svcname: sshd\u000a\u000a\u000a--===============8645434374073493512==\u000aMIME-Version: 1.0\u000aContent-Type: text/cloud-boothook; charset="us-ascii"\u000aContent-Transfer-Encoding: 7bit\u000aContent-Disposition: attachment; filename="entropy-seed"\u000a\u000a#!/bin/sh -x\u000a# DigitalOcean Entropy Seed script\u000alogger -t DigitalOcean 'adding random seed to /dev/urandom'\u000a(base64 -d <<EOE\u000aA4sYVlpW0T8kIXoWfMbO2oT9H8QMIK6M+wsbqltZJVC9U7QtF/4vEbvOsFE9Hamx+LmCrnr9SQCA\u000aG0LwkLyHAD+01f/nDFAMg1d44ytNmnrGZchmE41OqoFqJ5X2tZldyAxKhHcYyx3yswtmzVU/5cXu\u000aNyhGcSn0MU1uFupygbHhh+SHETSs68/TA2iPo0ajKd7HfyzIO6Nj1qzf1HipdWG8QxCFZ6kl5fJ/\u000aD4Hql72MLTH7Ypo5h0CCWVTeT0CHxiSFznv353vBtxun8eyrPetq8mwJ/gl5s8GLtsGpON0bGY+r\u000a/1q3Vi/cmudzNNULC18MGZ1ZfUVauOFgh2heRFPIDaydWQX656E67caVgcnnfUum9z5jNZX6jMFq\u000a1LaZogSU0xz10D1Y6aSVYEtbLBlThNwZ2Y/KzAE7Bz2h0Ffza8Qabnyy6GCGLbU+oAtVFNZ0Mbjb\u000aviOQhk6djbUZd4sEPULjYLIJQHD5uRssubrEb5rRsSzKZU07qn7bbb3axOusXAl1wbuj9IKX5leh\u000a5D7IV1fa+ne3KAEsnWFqFY5ilt7VceB2lgX2L32iBkDZ0MXmxrxiA3elZ+SRaMyDM8tOnfy0E1GK\u000aWbiwIaJLcuRuBZopR4cEa9oJQAYFXS6sAutl+0GwHY3Z8k1TQ4+n5G9BIMFPE0I9RAvKrw2gy2mF\u000a2KAcajy7N2nlRspj2VhCEsaP1DnW7fM6sdtb/mCf4dFnV/mdN2xWis4WBG8dDiCRkz8mGEd/LdEj\u000akpZV2GnfBWdMMIpgBj5Uynmr87F0TRe5lSO/DLB82Hy4NldC6GZdKGtKGgS4Asm/PosXJPcmOQKC\u000afl+UFaAsGOOkgGnMhEImJSy8m6xtitoCTb98wGd97TRoaPivDbcOCfyXHs23gdp9Jge8tddE5oo8\u000axx9T5F4PmuniDCMwcRInRUQ6iaDl8CUQkt87Cw4Fk52IUylPIunVqZOOstA0yLmsy3r74FmI6+9P\u000aqRd3BJ3EaO+xxQf2X8ieVGcSHmfkJFcgSLVx/wO2OQoN5zLwG7YNxKp6LxE6Y6M/5nUAyvyYxD6o\u000aSBcetO3i3uhwnG5eKAsQ5uHndPkDDO/ayL5dWgBypRnBhQbz0uLICGNCTLS4sxKAbBpBVMS+qG1e\u000ax1k47M6LOgY/jmrrXWSdEBGAlbCkH2aPYqnDXJoxuhL6y6NMVueZtiGVDNX1f60uGtmspe8b6lQu\u000a9qwU1rFaESiz5hjaA1j3m+/r8wZOEebx3WqdPZ2tiynVAafPdNrWcchNdsXSRGao9buLKVtt+KaW\u000aDmAXjYHSNx39zDAIdtma3P0/vWjxByXTbr3jI6GarIKlmBPTiqc0Pc7JMlfUUZCNmWqoRonrx+3J\u000a+cc3ClTE8uvdp9iUEYYyhe/eSLA+EcyWK9HLe5WJ8Umz1FL+JsIaWHQ1yJsQwGWNUmghabHhrKaK\u000ak1x8Qp58bzQG2EkI7fIRzFY0gvy2I/3huIqBaVSXExG5lTBPe8JNK4kG6js6o7BOPEj6oO01EDFM\u000aP4doCm4BPouJR7SyVugMzmpi5cTcFGXrvTt0iilbEcij4X1uteY9MDOIy40APVunbalEGC/qm/12\u000aOPaYaJmndqaiCkNJk61pJ7J+2MdXGD0hprFaCRCKuWOPE3O6l0b0fQUd9IJiXcc29HtjuNpHaSrY\u000a3GQXtIIbDY4+k30qe5S0MA4XitISa9rgG4Z2NNoKVDxGPcQywu28nVC1/gui6h//BufIqp3glgSi\u000aaID7A8vEcQGNU7ZLacmL2gS6/Vj5Zu/E30M0zgwltSjk8Fth3hckzDKIZ/pHvrpXIYlELubyQpxY\u000ahqYyflDI+3IN1o385C9AEBzC9rTdtILFcE0c6DWNj+Wx5imFqm+ezPymtUmlpJ/PT3lDsvRNw6DH\u000aVkezLSPsvGf1sHB3AeIw6WYtjUmNnbuqwxmTVJOosiyb6iljohHYjA4rtCM4Sg1x99GF7h/mHXMF\u000aZxrSCDdK0Z34MG/eQPqn1f4gVJjsK3OiNQcqYNFgKHmVnKtpgO0nqz45FjDRlMnE+BoBZLWKEL1c\u000apfUwFPFQwMXjRoP1Y24LOAuo6DrIuoDXf/iv3QvxKRieyo8UzZ2HEHh5ZrQWWpjuMgoyWsGStOQE\u000adnfBSJV+klSO4hShxhg2hFfASltx+N9dYS5RdCa7gqD/XuE8Mfd0ZxbQEqQ+69yv1xSCD3wFB6sT\u000axjhEcVfCamdZ8aAQKyNB38SMUZbK8HTYnGnKA/8FEGDKoNK7hn0Kx1/mGfp5GtVpnppEwxPJhaxG\u000a7yb8KA7+a8mInrfBCo10gX0dRKtSYhyRngsUmq8JtbqR2TBUuwoX2UVJmfMH1aSQtR87vraCNsh6\u000am7wA7Z+zgp4AtJSgvX8VitYcPDrK496OJK6754TlnlGXuBO9d1VfHMy8tIBfLHGKtAEaeqHjCS+Q\u000a+pgXJQOokKAV30KFPnuE3ou96YN/Q22Rbr5aDbhlgx4bXmdTQn6+DUq9uruz0z9XafNTnuMg8u0J\u000awAq1OxF1XIz2BvGD/VtmvNw2WJY25I59D4+Auue/2nMrcuejc60MsNOThXvkhXKyltzoYx2AqALP\u000aNGxex9KXeB3p2x0zI7ZT79P81L8K3OQZ+QWVE4gmTmOfHPUjbZi2DSf42OEAmcU04qsEbiEx2t4O\u000abCClWTXztWTZwWdJB3qreY29Pn8P4wZNG5hD4TumkwasyhHHKaA5t3b73sh4Rd0UAfY/p12ClGHq\u000a+6gXYfjaIjZqn+BfCwezKfizHSXhI4LNsRYR4qtmep0VKDM0q2g3YSz6xjhMp7ZK7HNq27mc6gXt\u000aKnTAVVJZU2S0LFPSv38la5U4P85M6BeC1cyWkRL+t7Mf0gOPGGC/CPEAlEaBKtH9yyny3QxhYzBg\u000aMj59NGf85/ba1PCPTAW6nrF1j0bhQWZ7I51Q4PAsyhtRTRTJVJ94P2V8pDaYLfnnJjS12ZZDCnDe\u000amG+EjblMzt7H6RxrV6W1LczAYxfbDCA5d/AnuFYuqpF6hzjj6DzdFDqeQDrl1UnY6Ypwbt/A63vr\u000aMpUGD6n0yXBEwMVmb8Sh9XELFmeuZ+IIzIUFosJIerpDOyLRPCkQbhFDChkyGv8BotuqpLL+0wnk\u000aPfH5SEFRCT3g2p0JHV31PIpjcXeWshKdOuG9fcrsyryIhdfuzFstTpDrvsqB7CvjK2eKmHYmd7CC\u000afjNuTXt6XMYJ9rHoW1FRmF+Ta8NsS9YTqVQuKQfriN9arodxhhZCGpEue3OFZZJ9W+YmDAAEz3+v\u000am/6XMekF7VyfL5KoK7nLUKSDZDjX0RqRVXK59hXPtcxF43boN69rO5C9det8C2VJmH26wTry+AZL\u000aMJsq9iruP6tQ5FQrPATp1YCMKrvTw3D8QPgzw9koDAbKjYbxIZn2maNVkM75wjIcC7A5XItT4uMH\u000av7yakP2ehctj0nas0tqbPYitj7d6mmSxpWLOTccJhX5Bb3mypEyeKB2b9Py0PMLIJ2t+ar6Rjdw5\u000aF+s3QRbPziA3VYh1MWyh0GEz9WLGZqhdU/0L0F63dg4nrWs9RaPcKW5MBTfnfnqzsj/7Iw2n2/Ra\u000a37ICUgWBEegOyGjM8OfLMHWvRxBaiHCJj4yIEm26awYeaBWxUTXhcZXxI/YHmixced02MAYaK4u6\u000aP9843Q2QwENKvBv1o59/V0YIbo/yYRqk1fAsilVqv1l77385tRVqhWZKxeCbcErlRzHLuj5YtJwp\u000aGO0HGtSzkY/4/Lh7Lpic4Ahdum/6eQQN4o0eHZLD7QS4ZCfcpx9ojvUFrCz0/xQHIyvfBdSlXbsI\u000absPOEuhJ21z3lKUcPGCRF4c8jrMJeyh3+gSB208SpXj5Yylg4+QKHTMR6U/qMHRU/DFkEG+bGnBr\u000a5e6yzWAuOl8qYj8MQZ9AWvpmDpbbraTi8dUWdhyUE8EJcFTQyBh0sLygql0Tht9JsT7NeIUt4r/W\u000aCMjHdBi5tKwR90yyc58HvrQUm3GXSNDJZXDitqmVSzSLSChY5ouMcWiEYU7se7OpaH9UrbDOnImF\u000abfs5A2CeEb/6IINRMbaoBjaVoq4fBPYaoDn0Nco+WytFrfpPld7Q2zzAZj/PNDlEo6J0\u000a\u000aEOE\u000a) > /dev/urandom \u000a\u000a\u000a--===============8645434374073493512==\u000aMIME-Version: 1.0\u000aContent-Type: text/cloud-boothook; charset="us-ascii"\u000aContent-Transfer-Encoding: 7bit\u000aContent-Disposition: attachment; filename="digitalocean_fixups"\u000a\u000a#!/bin/sh\u000a\u000a# Disable the locale warning: by default imported cloud-images check the default\u000a# local and give a warning about invalid locales. The following line disable\u000a# the warning.\u000a\u000a# do not assume that /etc/skel exists\u000aif [ -d /etc/skel ]; then\u000a    touch /etc/skel/.cloud-locale-test.skip\u000afi\u000atouch /root/.cloud-locale-test.skip\u000a\u000a# Disable Ubuntu MOTD\u000aif [ -f /etc/default/motd-news ]; then\u000a    sed -e "s/ENABLED=1/ENABLED=0/g" \u005c\u000a        -i /etc/default/motd-news\u000afi\u000a\u000a# Fix buggy cloud-init routes for IPv6\u000ar6c="/etc/sysconfig/network-scripts/route6-eth0"\u000aif [ -f "${r6c}" ]; then\u000a    sed -e "s|::/::|default|g" -i "${r6c}"\u000a    awk '/default via/{system("ip -6 route add default via "$NF" dev eth0")}' "${r6c}"\u000aelif [ -d "/etc/sysconfig/network-scripts" -a -f "/etc/network/interfaces" ]; then\u000a    # This deals with a bug in Fedora 27 where the network interface is not set\u000a    # properly by Cloud-init.\u000a    i6gw=$(egrep -A3 'iface eth0:1 inet6 static' /etc/network/interfaces | awk '/gateway/{print$NF}')\u000a    if [ -n "${i6gw}" ]; then\u000a        ip -6 route add default via ${i6gw} dev eth0\u000a        cat > ${r6c} <<EOM\u000a# DigitalOcean: written by ConfigDrive customization.\u000adefault via ${i6gw}\u000aEOM\u000a    fi\u000afi\u000a\u000a# Fix screwy file permmissions on the system resolvers.\u000achmod 0644 /etc/resolv.conf\u000a\u000a# Support automatic disk resizing per boot.\u000a# Only update /etc/hosts once per instance.\u000amkdir -p /etc/cloud/cloud.cfg.d\u000acat > /etc/cloud/cloud.cfg.d/90-digitalocean.cfg <<EOM\u000a####\u000a# DigitalOcean: this file was written via cloud-init and composed from /etc/cloud/cloud.cfg\u000a#               In order to support resize events, 'growpart' and 'resizefs' are run each boot.\u000a#               'update_etc_hosts' will be run only once per instance. To see the differences, run\u000a#               'diff -u /etc/cloud/cloud.cfg /etc/cloud/cloud.cfg.d/90-digitalocean.cfg'.\u000a#\u000a#               This file was written to support Droplet $(</sys/devices/virtual/dmi/id/product_serial) on $(date +%Y-%m-%d)\u000a####\u000a\u000aEOM\u000ased -e "s/- growpart$/- [ growpart, always ]/g" \u005c\u000a    -e "s/- resizefs$/- [ resizefs, always ]/g" \u005c\u000a    -e "s/- update_etc_hosts$/- [ update_etc_hosts, once-per-instance ]/g" \u005c\u000a    /etc/cloud/cloud.cfg >> /etc/cloud/cloud.cfg.d/90-digitalocean.cfg\u000a\u000a# Fix for machine-id's being dubiously present\u000acat > /var/lib/cloud/scripts/per-instance/machine_id.sh <<EOM\u000a#!/bin/bash\u000aCT=\u005c$(date +%s);\u000aFT=\u005c$(stat /etc/machine-id -c %Y);\u000aDIFF=\u005c$(expr \u005c$CT - \u005c$FT)\u000a# record timestamp on machine-id for testing\u000a# If /etc/machine_id is over 10m old on first-boot, delete it\u000aif [ -f /etc/machine-id ]; then\u000a    if [ \u005c$DIFF -lt 600 ]; then\u000a        exit 0\u000a    fi\u000arm -rf /etc/machine-id\u000afi\u000a\u000a# systemd will use dbus uudigen if its there\u000a# we need to reset this for Debain 9.\u000aif which dbus-uuidgen &> /dev/null; then\u000a    rm -rf /var/lib/dbus/machine-id\u000a    dbus-uuidgen --ensure=/var/lib/dbus/machine-id\u000afi\u000a\u000aif which systemd-machine-id-setup &> /dev/null; then\u000a    rm -rf /etc/machine-id\u000a    systemd-machine-id-setup\u000afi\u000aEOM\u000achmod 0700 /var/lib/cloud/scripts/per-instance/machine_id.sh\u000a\u000a# DigitalOcean updated the vendor-data to better support various distributions.\u000a# This script makes it so older snapshots will work by restoring the default behavior\u000a# of cloud-init.\u000aif [ -e /etc/cloud/cloud.cfg.disabled ]; then\u000a    mv /etc/cloud/cloud.cfg /etc/cloud/cloud.cfg.d/99-digitalocean.cfg\u000a    mv /etc/cloud/cloud.cfg.disabled /etc/cloud/cloud.cfg\u000a    logger -t DigitalOcean "restored default cloud-init behavior by renaming /etc/cloud/cloud.cfg.disabled to /etc/cloud/cloud.cfg"\u000afi\u000a\u000aif [ -d /etc/udev/rules.d ]; then\u000a    # Add udev rules to automount block storage volumes.\u000a    cat > /etc/udev/rules.d/99-digitalocean-automount.rules <<EOM\u000a# Only try to automount DO block volumes.\u000aSUBSYSTEM!="block", GOTO="do_automount_end"\u000aENV{ID_VENDOR}!="DO", GOTO="do_automount_end"\u000aENV{ID_MODEL}!="Volume", GOTO="do_automount_end"\u000a# Only automount on the "add" action.\u000aACTION!="add", GOTO="do_automount_end"\u000a# Only try to automount filesystems we know about.\u000aENV{ID_FS_TYPE}!="ext4|xfs", GOTO="do_automount_end"\u000a\u000a# Create a temporary mountpoint and temporary location for the first-mount script.\u000aIMPORT{program}="/bin/sh -c 'echo TMP_MOUNT_DIR=\u005c$(mktemp -d -p /mnt .do-first-mount-XXXXXXXXX)'"\u000aIMPORT{program}="/bin/sh -c 'echo TMP_SCRIPT=\u005c$(mktemp -t .do-first-mount-XXXXXXXXX.sh)'"\u000a\u000a# Mount the volume at the temp mountpoint and copy the script off, then unmount.\u000aRUN{program}+="/bin/mount -o ro /dev/%k %E{TMP_MOUNT_DIR}"\u000aRUN{program}+="/bin/sh -c '/bin/cp %E{TMP_MOUNT_DIR}/.first-mount.sh %E{TMP_SCRIPT} || exit 0'"\u000aRUN{program}+="/bin/umount %E{TMP_MOUNT_DIR}"\u000aRUN{program}+="/bin/rmdir %E{TMP_MOUNT_DIR}"\u000a\u000a# Run the first-mount script. If it didn't exist this will be a no-op.\u000aRUN{program}+="/bin/sh %E{TMP_SCRIPT} '%E{ID_SERIAL}' '%E{ID_FS_TYPE}' '%E{ID_SERIAL_SHORT}' '%E{ID_FS_UUID}' '%E{ID_FS_LABEL}'"\u000a\u000a# Clean up.\u000aRUN{program}+="/bin/rm %E{TMP_SCRIPT}"\u000a\u000a# Finally, try and mount the volume. On first mount this will fail, but that's\u000a# OK because the volume was already mounted by the first-mount script.\u000aRUN{program}+="/bin/sh -c '/bin/mount /dev/%k || exit 0'"\u000a\u000aLABEL="do_automount_end"\u000aEOM\u000a    if which udevadm &> /dev/null ; then\u000a        udevadm control -R\u000a        udevadm trigger --action=add --subsystem-match=block\u000a    fi\u000afi\u000a\u000a--===============8645434374073493512==--\u000a\u000a
p215
sS'metadata'
p216
(dp217
Vfiles
p218
(lp219
(dp220
Vpath
p221
g8
sVcontent_path
p222
V/content/0000
p223
sa(dp224
Vpath
p225
g10
sVcontent_path
p226
V/content/000u
p227
sa(dp228
Vpath
p229
g12
sVcontent_path
p230
V/content/000r
p231
sasVadmin_pass
p232
V941e6310680db5f1d46eef3ea6fe1039
p233
sS'local-hostname'
p234
VCOSC419-19
p235
sVuuid
p236
V110825973
p237
sVavailability_zone
p238
Vtor1
p239
sVhostname
p240
g235
sVinstance_id
p241
V110825973
p242
sVpublic_keys
p243
(dp244
sVnetwork_config
p245
(dp246
Vcontent_path
p247
V/content/0000
p248
ssS'instance-id'
p249
g237
ssS'network_eni'
p250
S"# Generated by the DigitalOcean provisioning process on 2018-12-17T00:56:18Z\n# See 'man interfaces' on a Debian/Ubuntu systems.\n# The network configuration was generated from http://169.254.169.254/metadata/v1.json.\n# You may also find the it on the locally attached CDROM under 'digitalocean_meta_data.json'\n\nauto lo\niface lo inet loopback\n\tdns-nameservers  67.207.67.3 67.207.67.2\n\nauto eth0\niface eth0 inet static\n\thwaddress 82:0b:31:6c:1a:01\n\taddress   159.89.121.5\n\tnetmask   255.255.240.0\n\tgateway   159.89.112.1\n\tpost-up ifup eth0:1\n\n\nauto eth0:1\niface eth0:1 inet static\n\thwaddress 82:0b:31:6c:1a:01\n\taddress   10.20.0.29/255.255.0.0\n"
p251
sS'vendordata_pure'
p252
g215
sS'source'
p253
V/dev/vdb
p254
sS'known_macs'
p255
Nsg66
I2
sS'ud_proc'
p256
g1
(ccloudinit.user_data
UserDataProcessor
p257
g3
NtRp258
(dp259
g14
g16
sS'ssl_details'
p260
(dp261
sbsg60
S'/var/lib/cloud/seed/config_drive'
p262
sS'ds_cfg'
p263
(dp264
sS'network_json'
p265
(dp266
Vservices
p267
(lp268
g110
ag115
asVnetworks
p269
(lp270
(dp271
Vip_address
p272
g88
sg82
g83
sVlink
p273
Vinterface-public
p274
sg84
Vipv4
p275
sg73
g74
sVneutron_network_id
p276
V7d9cd798-2dc0-502f-41ca-e04b552ddffd
p277
sVid
p278
Vpublic-ipv4
p279
sa(dp280
Vip_address
p281
g102
sg99
g100
sVlink
p282
Vinterface-public
p283
sg101
Vipv4
p284
sg90
g91
sVneutron_network_id
p285
V3eefd3f4-c20f-5fbf-76dc-1a2e748b408b
p286
sVid
p287
Vanchor-ipv4
p288
sasVlinks
p289
(lp290
(dp291
Vethernet_mac_address
p292
g104
sg105
Vphy
p293
sVid
p294
Vinterface-public
p295
sg109
I1500
sassS'dsmode'
p296
S'net'
p297
sS'distro'
p298
g1
(ccloudinit.distros.rhel
Distro
p299
g3
NtRp300
(dp301
S'osfamily'
p302
S'redhat'
p303
sg107
S'rhel'
p304
sS'_runner'
p305
g1
(ccloudinit.helpers
Runners
p306
g3
NtRp307
(dp308
g14
g1
(g15
g3
NtRp309
(dp310
g18
S'/run/cloud-init'
p311
sg20
(dp312
S'cloud_config'
p313
S'cloud-config.txt'
p314
sg146
S'user-data.txt.i'
p315
sg177
S'vendor-data.txt.i'
p316
sg213
S'user-data.txt'
p317
sS'boothooks'
p318
g318
sS'scripts'
p319
g319
sS'sem'
p320
g320
sS'data'
p321
g321
sS'vendor_scripts'
p322
S'scripts/vendor'
p323
sS'handlers'
p324
g324
sS'obj_pkl'
p325
S'obj.pkl'
p326
sg214
S'vendor-data.txt'
p327
sS'instance_id'
p328
S'.instance-id'
p329
sS'vendor_cloud_config'
p330
S'vendor-cloud-config.txt'
p331
ssg45
S'/etc/cloud/templates/%s.tmpl'
p332
sg47
(dp333
g123
g124
sg125
g126
ssg53
g124
sg54
g4
sg55
Nsg56
S'/var/lib/cloud/instance/boot-finished'
p334
sg58
S'/var/lib/cloud/instance'
p335
sg60
S'/var/lib/cloud/seed'
p336
sbsS'sems'
p337
(dp338
sbsS'_cfg'
p339
g120
sS'_paths'
p340
g309
sS'_net_renderer'
p341
g1
(ccloudinit.net.sysconfig
Renderer
p342
g3
NtRp343
(dp344
S'sysconf_dir'
p345
S'etc/sysconfig'
p346
sS'netrules_path'
p347
S'etc/udev/rules.d/70-persistent-net.rules'
p348
sS'networkmanager_conf_path'
p349
S'etc/NetworkManager/conf.d/99-cloud-init.conf'
p350
sS'dns_path'
p351
S'etc/resolv.conf'
p352
sbsbsb.